; ModuleID = 'source-C-CXX/30/284.c'
source_filename = "source-C-CXX/30/284.c"
target datalayout = "e-m:e-p270:32:32-p271:32:32-p272:64:64-i64:64-f80:128-n8:16:32:64-S128"
target triple = "x86_64-pc-linux-gnu"

; Function Attrs: nounwind sspstrong uwtable
define dso_local i32 @main() local_unnamed_addr #0 {
  %1 = alloca [1000 x [100 x i8]], align 16
  %2 = getelementptr inbounds [1000 x [100 x i8]], [1000 x [100 x i8]]* %1, i64 0, i64 0, i64 0
  call void @llvm.lifetime.start.p0i8(i64 100000, i8* nonnull %2) #4
  %3 = call i32 (i8*, ...) bitcast (i32 (...)* @gets to i32 (i8*, ...)*)(i8* nonnull %2) #4
  %4 = load i8, i8* %2, align 16, !tbaa !5
  %5 = icmp eq i8 %4, 101
  br i1 %5, label %25, label %12

6:                                                ; preds = %12
  %7 = trunc i64 %14 to i32
  %8 = icmp eq i32 %7, 0
  br i1 %8, label %25, label %9

9:                                                ; preds = %6
  %10 = shl i64 %14, 32
  %11 = ashr exact i64 %10, 32
  br label %19

12:                                               ; preds = %0, %12
  %13 = phi i64 [ %14, %12 ], [ 0, %0 ]
  %14 = add nuw i64 %13, 1
  %15 = getelementptr inbounds [1000 x [100 x i8]], [1000 x [100 x i8]]* %1, i64 0, i64 %14, i64 0
  %16 = call i32 (i8*, ...) bitcast (i32 (...)* @gets to i32 (i8*, ...)*)(i8* nonnull %15) #4
  %17 = load i8, i8* %15, align 4, !tbaa !5
  %18 = icmp eq i8 %17, 101
  br i1 %18, label %6, label %12, !llvm.loop !8

19:                                               ; preds = %9, %19
  %20 = phi i64 [ %11, %9 ], [ %21, %19 ]
  %21 = add nsw i64 %20, -1
  %22 = getelementptr inbounds [1000 x [100 x i8]], [1000 x [100 x i8]]* %1, i64 0, i64 %21, i64 0
  %23 = call i32 @puts(i8* nonnull %22)
  %24 = icmp eq i64 %21, 0
  br i1 %24, label %25, label %19, !llvm.loop !10

25:                                               ; preds = %19, %0, %6
  call void @llvm.lifetime.end.p0i8(i64 100000, i8* nonnull %2) #4
  ret i32 0
}

; Function Attrs: argmemonly mustprogress nofree nosync nounwind willreturn
declare void @llvm.lifetime.start.p0i8(i64 immarg, i8* nocapture) #1

declare i32 @gets(...) local_unnamed_addr #2

; Function Attrs: nofree nounwind
declare noundef i32 @puts(i8* nocapture noundef readonly) local_unnamed_addr #3

; Function Attrs: argmemonly mustprogress nofree nosync nounwind willreturn
declare void @llvm.lifetime.end.p0i8(i64 immarg, i8* nocapture) #1


!llvm.module.flags = !{!0, !1, !2, !3}
!llvm.ident = !{!4}

!0 = !{i32 1, !"wchar_size", i32 4}
!1 = !{i32 7, !"PIC Level", i32 2}
!2 = !{i32 7, !"PIE Level", i32 2}
!3 = !{i32 7, !"uwtable", i32 1}
!4 = !{!"clang version 13.0.0"}
!5 = !{!6, !6, i64 0}
!6 = !{!"omnipotent char", !7, i64 0}
!7 = !{!"Simple C/C++ TBAA"}
!8 = distinct !{!8, !9}
!9 = !{!"llvm.loop.mustprogress"}
!10 = distinct !{!10, !9}
